; Function Attrs: null_pointer_is_valid sspstrong uwtable
define internal i32 @dissect_ldap_SearchResultReference(i1 noundef zeroext %0, ptr noundef %1, i32 noundef %2, ptr noundef %3, ptr noundef %4, i32 noundef %5) #0 {
  %7 = tail call i32 @dissect_ber_tagged_type(i1 noundef zeroext %0, ptr noundef %3, ptr noundef %4, ptr noundef %1, i32 noundef %2, i32 noundef %5, i8 noundef signext 1, i32 noundef 19, i1 noundef zeroext true, ptr noundef nonnull @dissect_ldap_SEQUENCE_OF_LDAPURL)
  %.b3.i = load i1, ptr @do_protocolop, align 1
  br i1 %.b3.i, label %8, label %ldap_do_protocolop.exit

8:                                                ; preds = %6
  %9 = getelementptr inbounds nuw i8, ptr %3, i64 16
  %10 = load ptr, ptr %9, align 8
  %11 = load i32, ptr @ProtocolOp, align 4
  %12 = tail call ptr @val_to_str(i32 noundef %11, ptr noundef nonnull @ldap_ProtocolOp_choice_vals, ptr noundef nonnull @.str.874)
  %13 = getelementptr inbounds nuw i8, ptr %10, i64 8
  %14 = load ptr, ptr %13, align 8
  %15 = load i32, ptr @MessageID, align 4
  tail call void (ptr, i32, ptr, ...) @col_append_fstr(ptr noundef %14, i32 noundef 25, ptr noundef nonnull @.str.875, ptr noundef %12, i32 noundef %15)
  %16 = load ptr, ptr @ldm_tree, align 8
  %.not.i = icmp eq ptr %16, null
  br i1 %.not.i, label %19, label %17

17:                                               ; preds = %8
  %18 = load i32, ptr @MessageID, align 4
  tail call void (ptr, ptr, ...) @proto_item_append_text(ptr noundef nonnull %16, ptr noundef nonnull @.str.876, ptr noundef %12, i32 noundef %18)
  br label %19

19:                                               ; preds = %17, %8
  store i1 false, ptr @do_protocolop, align 1
  br label %ldap_do_protocolop.exit

ldap_do_protocolop.exit:                          ; preds = %6, %19
  ret i32 %7
}